target datalayout = "e-m:e-p270:32:32-p271:32:32-p272:64:64-i64:64-i128:128-f80:128-n8:16:32:64-S128"
target triple = "x86_64-pc-linux-gnu"

; Function Attrs: nounwind uwtable
define i32 @wc_PRF_TLS(ptr noundef %0, i32 noundef %1, ptr noundef %2, i32 noundef %3, ptr noundef %4, i32 noundef %5, ptr noundef %6, i32 noundef %7, i32 noundef %8, i32 noundef %9, ptr noundef %10, i32 noundef %11) #0 {
  %13 = alloca i32, align 4
  %14 = alloca ptr, align 8
  %15 = alloca i32, align 4
  %16 = alloca ptr, align 8
  %17 = alloca i32, align 4
  %18 = alloca ptr, align 8
  %19 = alloca i32, align 4
  %20 = alloca ptr, align 8
  %21 = alloca i32, align 4
  %22 = alloca i32, align 4
  %23 = alloca i32, align 4
  %24 = alloca ptr, align 8
  %25 = alloca i32, align 4
  %26 = alloca i32, align 4
  %27 = alloca [128 x i8], align 16
  %28 = alloca i32, align 4
  store ptr %0, ptr %14, align 8, !tbaa !3
  store i32 %1, ptr %15, align 4, !tbaa !8
  store ptr %2, ptr %16, align 8, !tbaa !3
  store i32 %3, ptr %17, align 4, !tbaa !8
  store ptr %4, ptr %18, align 8, !tbaa !3
  store i32 %5, ptr %19, align 4, !tbaa !8
  store ptr %6, ptr %20, align 8, !tbaa !3
  store i32 %7, ptr %21, align 4, !tbaa !8
  store i32 %8, ptr %22, align 4, !tbaa !8
  store i32 %9, ptr %23, align 4, !tbaa !8
  store ptr %10, ptr %24, align 8, !tbaa !10
  store i32 %11, ptr %25, align 4, !tbaa !8
  call void @llvm.lifetime.start.p0(i64 4, ptr %26) #6
  store i32 0, ptr %26, align 4, !tbaa !8
  %29 = load i32, ptr %22, align 4, !tbaa !8
  %30 = icmp ne i32 %29, 0
  br i1 %30, label %31, label %71

31:                                               ; preds = %12
  call void @llvm.lifetime.start.p0(i64 128, ptr %27) #6
  %32 = load i32, ptr %19, align 4, !tbaa !8
  %33 = load i32, ptr %21, align 4, !tbaa !8
  %34 = add i32 %32, %33
  %35 = icmp ugt i32 %34, 128
  br i1 %35, label %36, label %37

36:                                               ; preds = %31
  store i32 -132, ptr %13, align 4
  store i32 1, ptr %28, align 4
  br label %68

37:                                               ; preds = %31
  %38 = getelementptr inbounds [128 x i8], ptr %27, i64 0, i64 0
  %39 = load ptr, ptr %18, align 8, !tbaa !3
  %40 = load i32, ptr %19, align 4, !tbaa !8
  %41 = zext i32 %40 to i64
  call void @llvm.memcpy.p0.p0.i64(ptr align 16 %38, ptr align 1 %39, i64 %41, i1 false)
  %42 = getelementptr inbounds [128 x i8], ptr %27, i64 0, i64 0
  %43 = load i32, ptr %19, align 4, !tbaa !8
  %44 = zext i32 %43 to i64
  %45 = getelementptr inbounds nuw i8, ptr %42, i64 %44
  %46 = load ptr, ptr %20, align 8, !tbaa !3
  %47 = load i32, ptr %21, align 4, !tbaa !8
  %48 = zext i32 %47 to i64
  call void @llvm.memcpy.p0.p0.i64(ptr align 1 %45, ptr align 1 %46, i64 %48, i1 false)
  %49 = load i32, ptr %23, align 4, !tbaa !8
  %50 = icmp slt i32 %49, 4
  br i1 %50, label %54, label %51

51:                                               ; preds = %37
  %52 = load i32, ptr %23, align 4, !tbaa !8
  %53 = icmp eq i32 %52, 8
  br i1 %53, label %54, label %55

54:                                               ; preds = %51, %37
  store i32 4, ptr %23, align 4, !tbaa !8
  br label %55

55:                                               ; preds = %54, %51
  %56 = load ptr, ptr %14, align 8, !tbaa !3
  %57 = load i32, ptr %15, align 4, !tbaa !8
  %58 = load ptr, ptr %16, align 8, !tbaa !3
  %59 = load i32, ptr %17, align 4, !tbaa !8
  %60 = getelementptr inbounds [128 x i8], ptr %27, i64 0, i64 0
  %61 = load i32, ptr %19, align 4, !tbaa !8
  %62 = load i32, ptr %21, align 4, !tbaa !8
  %63 = add i32 %61, %62
  %64 = load i32, ptr %23, align 4, !tbaa !8
  %65 = load ptr, ptr %24, align 8, !tbaa !10
  %66 = load i32, ptr %25, align 4, !tbaa !8
  %67 = call i32 @wc_PRF(ptr noundef %56, i32 noundef %57, ptr noundef %58, i32 noundef %59, ptr noundef %60, i32 noundef %63, i32 noundef %64, ptr noundef %65, i32 noundef %66)
  store i32 %67, ptr %26, align 4, !tbaa !8
  store i32 0, ptr %28, align 4
  br label %68

68:                                               ; preds = %55, %36
  call void @llvm.lifetime.end.p0(i64 128, ptr %27) #6
  %69 = load i32, ptr %28, align 4
  switch i32 %69, label %85 [
    i32 0, label %70
  ]

70:                                               ; preds = %68
  br label %83

71:                                               ; preds = %12
  %72 = load ptr, ptr %14, align 8, !tbaa !3
  %73 = load i32, ptr %15, align 4, !tbaa !8
  %74 = load ptr, ptr %16, align 8, !tbaa !3
  %75 = load i32, ptr %17, align 4, !tbaa !8
  %76 = load ptr, ptr %18, align 8, !tbaa !3
  %77 = load i32, ptr %19, align 4, !tbaa !8
  %78 = load ptr, ptr %20, align 8, !tbaa !3
  %79 = load i32, ptr %21, align 4, !tbaa !8
  %80 = load ptr, ptr %24, align 8, !tbaa !10
  %81 = load i32, ptr %25, align 4, !tbaa !8
  %82 = call i32 @wc_PRF_TLSv1(ptr noundef %72, i32 noundef %73, ptr noundef %74, i32 noundef %75, ptr noundef %76, i32 noundef %77, ptr noundef %78, i32 noundef %79, ptr noundef %80, i32 noundef %81)
  store i32 %82, ptr %26, align 4, !tbaa !8
  br label %83

83:                                               ; preds = %71, %70
  %84 = load i32, ptr %26, align 4, !tbaa !8
  store i32 %84, ptr %13, align 4
  store i32 1, ptr %28, align 4
  br label %85

85:                                               ; preds = %83, %68
  call void @llvm.lifetime.end.p0(i64 4, ptr %26) #6
  %86 = load i32, ptr %13, align 4
  ret i32 %86
}